target datalayout = "e-m:e-p270:32:32-p271:32:32-p272:64:64-i64:64-i128:128-f80:128-n8:16:32:64-S128"
target triple = "x86_64-pc-linux-gnu"

%struct.cpuiddump = type { i32, ptr }
%struct.cpuiddump_entry = type { i32, i32, i32, i32, i32, i32, i32, i32, i32 }

@stderr = external global ptr, align 8
@.str.14 = private unnamed_addr constant [69 x i8] c"hwloc/x86: Couldn't find %x,%x,%x,%x in dumped cpuid, returning 0s.\0A\00", align 1

; Function Attrs: inlinehint nounwind uwtable
define internal void @hwloc_x86_cpuid(ptr noundef %0, ptr noundef %1, ptr noundef %2, ptr noundef %3) #6 {
  %5 = alloca ptr, align 8
  %6 = alloca ptr, align 8
  %7 = alloca ptr, align 8
  %8 = alloca ptr, align 8
  %9 = alloca i64, align 8
  store ptr %0, ptr %5, align 8, !tbaa !108
  store ptr %1, ptr %6, align 8, !tbaa !108
  store ptr %2, ptr %7, align 8, !tbaa !108
  store ptr %3, ptr %8, align 8, !tbaa !108
  call void @llvm.lifetime.start.p0(i64 8, ptr %9) #15
  %10 = load ptr, ptr %5, align 8, !tbaa !108
  %11 = load i32, ptr %10, align 4, !tbaa !10
  %12 = load ptr, ptr %6, align 8, !tbaa !108
  %13 = load ptr, ptr %7, align 8, !tbaa !108
  %14 = load i32, ptr %13, align 4, !tbaa !10
  %15 = load ptr, ptr %8, align 8, !tbaa !108
  %16 = call { i32, i64, i32, i32 } asm "mov %rbx,$2\0A\09cpuid\0A\09xchg $2,%rbx\0A\09movl ${2:k},$1\0A\09", "={ax},=*m,=&r,={cx},=&{dx},0,3,~{dirflag},~{fpsr},~{flags}"(ptr elementtype(i32) %12, i32 %11, i32 %14) #15, !srcloc !173
  %17 = extractvalue { i32, i64, i32, i32 } %16, 0
  %18 = extractvalue { i32, i64, i32, i32 } %16, 1
  %19 = extractvalue { i32, i64, i32, i32 } %16, 2
  %20 = extractvalue { i32, i64, i32, i32 } %16, 3
  store i32 %17, ptr %10, align 4, !tbaa !10
  store i64 %18, ptr %9, align 8, !tbaa !43
  store i32 %19, ptr %13, align 4, !tbaa !10
  store i32 %20, ptr %15, align 4, !tbaa !10
  call void @llvm.lifetime.end.p0(i64 8, ptr %9) #15
  ret void
}

; Function Attrs: nounwind uwtable
define internal void @cpuiddump_find_by_input(ptr noundef %0, ptr noundef %1, ptr noundef %2, ptr noundef %3, ptr noundef %4) #0 {
  %6 = alloca ptr, align 8
  %7 = alloca ptr, align 8
  %8 = alloca ptr, align 8
  %9 = alloca ptr, align 8
  %10 = alloca ptr, align 8
  %11 = alloca i32, align 4
  %12 = alloca ptr, align 8
  %13 = alloca i32, align 4
  store ptr %0, ptr %6, align 8, !tbaa !108
  store ptr %1, ptr %7, align 8, !tbaa !108
  store ptr %2, ptr %8, align 8, !tbaa !108
  store ptr %3, ptr %9, align 8, !tbaa !108
  store ptr %4, ptr %10, align 8, !tbaa !88
  call void @llvm.lifetime.start.p0(i64 4, ptr %11) #15
  store i32 0, ptr %11, align 4, !tbaa !10
  br label %14

14:                                               ; preds = %101, %5
  %15 = load i32, ptr %11, align 4, !tbaa !10
  %16 = load ptr, ptr %10, align 8, !tbaa !88
  %17 = getelementptr inbounds nuw %struct.cpuiddump, ptr %16, i32 0, i32 0
  %18 = load i32, ptr %17, align 8, !tbaa !107
  %19 = icmp ult i32 %15, %18
  br i1 %19, label %20, label %104

20:                                               ; preds = %14
  call void @llvm.lifetime.start.p0(i64 8, ptr %12) #15
  %21 = load ptr, ptr %10, align 8, !tbaa !88
  %22 = getelementptr inbounds nuw %struct.cpuiddump, ptr %21, i32 0, i32 1
  %23 = load ptr, ptr %22, align 8, !tbaa !102
  %24 = load i32, ptr %11, align 4, !tbaa !10
  %25 = zext i32 %24 to i64
  %26 = getelementptr inbounds nuw %struct.cpuiddump_entry, ptr %23, i64 %25
  store ptr %26, ptr %12, align 8, !tbaa !105
  %27 = load ptr, ptr %12, align 8, !tbaa !105
  %28 = getelementptr inbounds nuw %struct.cpuiddump_entry, ptr %27, i32 0, i32 0
  %29 = load i32, ptr %28, align 4, !tbaa !162
  %30 = and i32 %29, 1
  %31 = icmp ne i32 %30, 0
  br i1 %31, label %32, label %40

32:                                               ; preds = %20
  %33 = load ptr, ptr %6, align 8, !tbaa !108
  %34 = load i32, ptr %33, align 4, !tbaa !10
  %35 = load ptr, ptr %12, align 8, !tbaa !105
  %36 = getelementptr inbounds nuw %struct.cpuiddump_entry, ptr %35, i32 0, i32 1
  %37 = load i32, ptr %36, align 4, !tbaa !164
  %38 = icmp ne i32 %34, %37
  br i1 %38, label %39, label %40

39:                                               ; preds = %32
  store i32 4, ptr %13, align 4
  br label %99

40:                                               ; preds = %32, %20
  %41 = load ptr, ptr %12, align 8, !tbaa !105
  %42 = getelementptr inbounds nuw %struct.cpuiddump_entry, ptr %41, i32 0, i32 0
  %43 = load i32, ptr %42, align 4, !tbaa !162
  %44 = and i32 %43, 2
  %45 = icmp ne i32 %44, 0
  br i1 %45, label %46, label %54

46:                                               ; preds = %40
  %47 = load ptr, ptr %7, align 8, !tbaa !108
  %48 = load i32, ptr %47, align 4, !tbaa !10
  %49 = load ptr, ptr %12, align 8, !tbaa !105
  %50 = getelementptr inbounds nuw %struct.cpuiddump_entry, ptr %49, i32 0, i32 2
  %51 = load i32, ptr %50, align 4, !tbaa !165
  %52 = icmp ne i32 %48, %51
  br i1 %52, label %53, label %54

53:                                               ; preds = %46
  store i32 4, ptr %13, align 4
  br label %99

54:                                               ; preds = %46, %40
  %55 = load ptr, ptr %12, align 8, !tbaa !105
  %56 = getelementptr inbounds nuw %struct.cpuiddump_entry, ptr %55, i32 0, i32 0
  %57 = load i32, ptr %56, align 4, !tbaa !162
  %58 = and i32 %57, 4
  %59 = icmp ne i32 %58, 0
  br i1 %59, label %60, label %68

60:                                               ; preds = %54
  %61 = load ptr, ptr %8, align 8, !tbaa !108
  %62 = load i32, ptr %61, align 4, !tbaa !10
  %63 = load ptr, ptr %12, align 8, !tbaa !105
  %64 = getelementptr inbounds nuw %struct.cpuiddump_entry, ptr %63, i32 0, i32 3
  %65 = load i32, ptr %64, align 4, !tbaa !166
  %66 = icmp ne i32 %62, %65
  br i1 %66, label %67, label %68

67:                                               ; preds = %60
  store i32 4, ptr %13, align 4
  br label %99

68:                                               ; preds = %60, %54
  %69 = load ptr, ptr %12, align 8, !tbaa !105
  %70 = getelementptr inbounds nuw %struct.cpuiddump_entry, ptr %69, i32 0, i32 0
  %71 = load i32, ptr %70, align 4, !tbaa !162
  %72 = and i32 %71, 8
  %73 = icmp ne i32 %72, 0
  br i1 %73, label %74, label %82

74:                                               ; preds = %68
  %75 = load ptr, ptr %9, align 8, !tbaa !108
  %76 = load i32, ptr %75, align 4, !tbaa !10
  %77 = load ptr, ptr %12, align 8, !tbaa !105
  %78 = getelementptr inbounds nuw %struct.cpuiddump_entry, ptr %77, i32 0, i32 4
  %79 = load i32, ptr %78, align 4, !tbaa !167
  %80 = icmp ne i32 %76, %79
  br i1 %80, label %81, label %82

81:                                               ; preds = %74
  store i32 4, ptr %13, align 4
  br label %99

82:                                               ; preds = %74, %68
  %83 = load ptr, ptr %12, align 8, !tbaa !105
  %84 = getelementptr inbounds nuw %struct.cpuiddump_entry, ptr %83, i32 0, i32 5
  %85 = load i32, ptr %84, align 4, !tbaa !168
  %86 = load ptr, ptr %6, align 8, !tbaa !108
  store i32 %85, ptr %86, align 4, !tbaa !10
  %87 = load ptr, ptr %12, align 8, !tbaa !105
  %88 = getelementptr inbounds nuw %struct.cpuiddump_entry, ptr %87, i32 0, i32 6
  %89 = load i32, ptr %88, align 4, !tbaa !169
  %90 = load ptr, ptr %7, align 8, !tbaa !108
  store i32 %89, ptr %90, align 4, !tbaa !10
  %91 = load ptr, ptr %12, align 8, !tbaa !105
  %92 = getelementptr inbounds nuw %struct.cpuiddump_entry, ptr %91, i32 0, i32 7
  %93 = load i32, ptr %92, align 4, !tbaa !170
  %94 = load ptr, ptr %8, align 8, !tbaa !108
  store i32 %93, ptr %94, align 4, !tbaa !10
  %95 = load ptr, ptr %12, align 8, !tbaa !105
  %96 = getelementptr inbounds nuw %struct.cpuiddump_entry, ptr %95, i32 0, i32 8
  %97 = load i32, ptr %96, align 4, !tbaa !171
  %98 = load ptr, ptr %9, align 8, !tbaa !108
  store i32 %97, ptr %98, align 4, !tbaa !10
  store i32 1, ptr %13, align 4
  br label %99

99:                                               ; preds = %82, %81, %67, %53, %39
  call void @llvm.lifetime.end.p0(i64 8, ptr %12) #15
  %100 = load i32, ptr %13, align 4
  switch i32 %100, label %119 [
    i32 4, label %101
  ]

101:                                              ; preds = %99
  %102 = load i32, ptr %11, align 4, !tbaa !10
  %103 = add i32 %102, 1
  store i32 %103, ptr %11, align 4, !tbaa !10
  br label %14, !llvm.loop !172

104:                                              ; preds = %14
  %105 = load ptr, ptr @stderr, align 8, !tbaa !38
  %106 = load ptr, ptr %6, align 8, !tbaa !108
  %107 = load i32, ptr %106, align 4, !tbaa !10
  %108 = load ptr, ptr %7, align 8, !tbaa !108
  %109 = load i32, ptr %108, align 4, !tbaa !10
  %110 = load ptr, ptr %8, align 8, !tbaa !108
  %111 = load i32, ptr %110, align 4, !tbaa !10
  %112 = load ptr, ptr %9, align 8, !tbaa !108
  %113 = load i32, ptr %112, align 4, !tbaa !10
  %114 = call i32 (ptr, ptr, ...) @fprintf(ptr noundef %105, ptr noundef @.str.14, i32 noundef %107, i32 noundef %109, i32 noundef %111, i32 noundef %113) #15
  %115 = load ptr, ptr %6, align 8, !tbaa !108
  store i32 0, ptr %115, align 4, !tbaa !10
  %116 = load ptr, ptr %7, align 8, !tbaa !108
  store i32 0, ptr %116, align 4, !tbaa !10
  %117 = load ptr, ptr %8, align 8, !tbaa !108
  store i32 0, ptr %117, align 4, !tbaa !10
  %118 = load ptr, ptr %9, align 8, !tbaa !108
  store i32 0, ptr %118, align 4, !tbaa !10
  store i32 0, ptr %13, align 4
  br label %119

119:                                              ; preds = %104, %99
  call void @llvm.lifetime.end.p0(i64 4, ptr %11) #15
  %120 = load i32, ptr %13, align 4
  switch i32 %120, label %122 [
    i32 0, label %121
    i32 1, label %121
  ]

121:                                              ; preds = %119, %119
  ret void

122:                                              ; preds = %119
  unreachable
}

; Function Attrs: nounwind uwtable
define internal void @cpuid_or_from_dump(ptr noundef %0, ptr noundef %1, ptr noundef %2, ptr noundef %3, ptr noundef %4) #0 {
  %6 = alloca ptr, align 8
  %7 = alloca ptr, align 8
  %8 = alloca ptr, align 8
  %9 = alloca ptr, align 8
  %10 = alloca ptr, align 8
  store ptr %0, ptr %6, align 8, !tbaa !108
  store ptr %1, ptr %7, align 8, !tbaa !108
  store ptr %2, ptr %8, align 8, !tbaa !108
  store ptr %3, ptr %9, align 8, !tbaa !108
  store ptr %4, ptr %10, align 8, !tbaa !88
  %11 = load ptr, ptr %10, align 8, !tbaa !88
  %12 = icmp ne ptr %11, null
  br i1 %12, label %13, label %19

13:                                               ; preds = %5
  %14 = load ptr, ptr %6, align 8, !tbaa !108
  %15 = load ptr, ptr %7, align 8, !tbaa !108
  %16 = load ptr, ptr %8, align 8, !tbaa !108
  %17 = load ptr, ptr %9, align 8, !tbaa !108
  %18 = load ptr, ptr %10, align 8, !tbaa !88
  call void @cpuiddump_find_by_input(ptr noundef %14, ptr noundef %15, ptr noundef %16, ptr noundef %17, ptr noundef %18)
  br label %24

19:                                               ; preds = %5
  %20 = load ptr, ptr %6, align 8, !tbaa !108
  %21 = load ptr, ptr %7, align 8, !tbaa !108
  %22 = load ptr, ptr %8, align 8, !tbaa !108
  %23 = load ptr, ptr %9, align 8, !tbaa !108
  call void @hwloc_x86_cpuid(ptr noundef %20, ptr noundef %21, ptr noundef %22, ptr noundef %23)
  br label %24

24:                                               ; preds = %19, %13
  ret void
}