; Function Attrs: nounwind uwtable
define internal fastcc void @cpuid_or_from_dump(ptr noundef nonnull captures(none) %0, ptr noundef nonnull %1, ptr noundef nonnull captures(none) %2, ptr noundef nonnull captures(none) %3, ptr noundef readonly captures(address_is_null) %4) unnamed_addr #0 {
  %.not = icmp eq ptr %4, null
  br i1 %.not, label %51, label %6

6:                                                ; preds = %5
  %7 = load i32, ptr %4, align 8, !tbaa !72
  %.not42.i = icmp eq i32 %7, 0
  br i1 %.not42.i, label %._crit_edge.i, label %.lr.ph.i

.lr.ph.i:                                         ; preds = %6
  %8 = getelementptr inbounds nuw i8, ptr %4, i64 8
  %9 = load ptr, ptr %8, align 8, !tbaa !75
  %wide.trip.count.i = zext i32 %7 to i64
  br label %10

10:                                               ; preds = %44, %.lr.ph.i
  %indvars.iv.i = phi i64 [ 0, %.lr.ph.i ], [ %indvars.iv.next.i, %44 ]
  %11 = getelementptr inbounds nuw %struct.cpuiddump_entry, ptr %9, i64 %indvars.iv.i
  %12 = load i32, ptr %11, align 4, !tbaa !76
  %13 = and i32 %12, 1
  %.not.i = icmp eq i32 %13, 0
  br i1 %.not.i, label %18, label %14

14:                                               ; preds = %10
  %15 = load i32, ptr %0, align 4, !tbaa !67
  %16 = getelementptr inbounds nuw i8, ptr %11, i64 4
  %17 = load i32, ptr %16, align 4, !tbaa !78
  %.not34.i = icmp eq i32 %15, %17
  br i1 %.not34.i, label %18, label %44

18:                                               ; preds = %14, %10
  %19 = and i32 %12, 2
  %.not35.i = icmp eq i32 %19, 0
  br i1 %.not35.i, label %24, label %20

20:                                               ; preds = %18
  %21 = load i32, ptr %1, align 4, !tbaa !67
  %22 = getelementptr inbounds nuw i8, ptr %11, i64 8
  %23 = load i32, ptr %22, align 4, !tbaa !79
  %.not36.i = icmp eq i32 %21, %23
  br i1 %.not36.i, label %24, label %44

24:                                               ; preds = %20, %18
  %25 = and i32 %12, 4
  %.not37.i = icmp eq i32 %25, 0
  br i1 %.not37.i, label %30, label %26

26:                                               ; preds = %24
  %27 = load i32, ptr %2, align 4, !tbaa !67
  %28 = getelementptr inbounds nuw i8, ptr %11, i64 12
  %29 = load i32, ptr %28, align 4, !tbaa !80
  %.not38.i = icmp eq i32 %27, %29
  br i1 %.not38.i, label %30, label %44

30:                                               ; preds = %26, %24
  %31 = and i32 %12, 8
  %.not39.i = icmp eq i32 %31, 0
  br i1 %.not39.i, label %.critedge.i, label %32

32:                                               ; preds = %30
  %33 = load i32, ptr %3, align 4, !tbaa !67
  %34 = getelementptr inbounds nuw i8, ptr %11, i64 16
  %35 = load i32, ptr %34, align 4, !tbaa !87
  %.not40.i = icmp eq i32 %33, %35
  br i1 %.not40.i, label %.critedge.i, label %44

.critedge.i:                                      ; preds = %32, %30
  %36 = getelementptr inbounds nuw i8, ptr %11, i64 20
  %37 = load i32, ptr %36, align 4, !tbaa !81
  store i32 %37, ptr %0, align 4, !tbaa !67
  %38 = getelementptr inbounds nuw i8, ptr %11, i64 24
  %39 = load i32, ptr %38, align 4, !tbaa !82
  store i32 %39, ptr %1, align 4, !tbaa !67
  %40 = getelementptr inbounds nuw i8, ptr %11, i64 28
  %41 = load i32, ptr %40, align 4, !tbaa !83
  store i32 %41, ptr %2, align 4, !tbaa !67
  %42 = getelementptr inbounds nuw i8, ptr %11, i64 32
  %43 = load i32, ptr %42, align 4, !tbaa !84
  br label %cpuiddump_find_by_input.exit

44:                                               ; preds = %32, %26, %20, %14
  %indvars.iv.next.i = add nuw nsw i64 %indvars.iv.i, 1
  %exitcond.not.i = icmp eq i64 %indvars.iv.next.i, %wide.trip.count.i
  br i1 %exitcond.not.i, label %._crit_edge.i, label %10, !llvm.loop !85

._crit_edge.i:                                    ; preds = %44, %6
  %45 = load ptr, ptr @stderr, align 8, !tbaa !22
  %46 = load i32, ptr %0, align 4, !tbaa !67
  %47 = load i32, ptr %1, align 4, !tbaa !67
  %48 = load i32, ptr %2, align 4, !tbaa !67
  %49 = load i32, ptr %3, align 4, !tbaa !67
  %50 = tail call i32 (ptr, ptr, ...) @fprintf(ptr noundef %45, ptr noundef nonnull @.str.14, i32 noundef %46, i32 noundef %47, i32 noundef %48, i32 noundef %49) #25
  store i32 0, ptr %0, align 4, !tbaa !67
  store i32 0, ptr %1, align 4, !tbaa !67
  store i32 0, ptr %2, align 4, !tbaa !67
  br label %cpuiddump_find_by_input.exit

51:                                               ; preds = %5
  %52 = load i32, ptr %0, align 4, !tbaa !67
  %53 = load i32, ptr %2, align 4, !tbaa !67
  %54 = tail call { i32, i64, i32, i32 } asm "mov %rbx,$2\0A\09cpuid\0A\09xchg $2,%rbx\0A\09movl ${2:k},$1\0A\09", "={ax},=*m,=&r,={cx},=&{dx},0,3,~{dirflag},~{fpsr},~{flags}"(ptr nonnull elementtype(i32) %1, i32 %52, i32 %53) #22, !srcloc !86
  %55 = extractvalue { i32, i64, i32, i32 } %54, 0
  %56 = extractvalue { i32, i64, i32, i32 } %54, 2
  %57 = extractvalue { i32, i64, i32, i32 } %54, 3
  store i32 %55, ptr %0, align 4, !tbaa !67
  store i32 %56, ptr %2, align 4, !tbaa !67
  br label %cpuiddump_find_by_input.exit

cpuiddump_find_by_input.exit:                     ; preds = %._crit_edge.i, %.critedge.i, %51
  %storemerge = phi i32 [ %57, %51 ], [ 0, %._crit_edge.i ], [ %43, %.critedge.i ]
  store i32 %storemerge, ptr %3, align 4, !tbaa !67
  ret void
}